CCS PCM C Compiler, Version 5.007, 61971               03-Oca-22 16:15

               Filename:   C:\Users\Eray\Desktop\H koprusu ile dc motor surme.lst

               ROM used:   51 words (1%)
                           Largest free fragment is 2048
               RAM used:   5 (1%) at main() level
                           5 (1%) worst case
               Stack used: 0 locations
               Stack size: 8

*
0000:  MOVLW  00
0001:  MOVWF  0A
0002:  GOTO   004
0003:  NOP
.................... #include<16f877.h> 
.................... //////// Standard Header file for the PIC16F877 device //////////////// 
.................... #device PIC16F877 
....................  
.................... #list 
....................  
....................  
.................... #use delay(clock = 400000) 
....................  
.................... #use fast_io(a) 
.................... #use fast_io(b) 
....................  
.................... #define ileri pin_a0 
.................... #define geri pin_a1 
.................... #define dur pin_a2 
....................  
.................... void main(){ 
0004:  BSF    03.5
0005:  BSF    1F.0
0006:  BSF    1F.1
0007:  BSF    1F.2
0008:  BCF    1F.3
0009:  BCF    03.7
000A:  MOVLW  1F
000B:  ANDWF  03,F
.................... setup_psp(PSP_DISABLED); 
000C:  BCF    09.4
.................... setup_timer_1(T1_DISABLED); 
000D:  BCF    03.5
000E:  CLRF   10
.................... setup_timer_2(T2_DISABLED,0,1); 
000F:  MOVLW  00
0010:  MOVWF  78
0011:  MOVWF  12
0012:  MOVLW  00
0013:  BSF    03.5
0014:  MOVWF  12
.................... setup_adc_ports(NO_ANALOGS); 
0015:  BSF    1F.0
0016:  BSF    1F.1
0017:  BSF    1F.2
0018:  BCF    1F.3
.................... setup_adc(ADC_OFF); 
0019:  BCF    03.5
001A:  BCF    1F.0
.................... setup_ccp1(CCP_OFF); 
001B:  MOVLW  F0
001C:  ANDWF  17,F
.................... setup_ccp2(CCP_OFF); 
001D:  ANDWF  1D,F
....................  
.................... set_tris_a(0x07); //0b00000111 
001E:  MOVLW  07
001F:  BSF    03.5
0020:  MOVWF  05
.................... set_tris_b(0x00); 
0021:  MOVLW  00
0022:  MOVWF  06
....................  
.................... output_b(0x00); 
0023:  BCF    03.5
0024:  CLRF   06
....................  
.................... while(true){ 
.................... if(input(ileri)){ 
0025:  BTFSS  05.0
0026:  GOTO   029
....................  
.................... output_b(0x09); 
0027:  MOVLW  09
0028:  MOVWF  06
....................  
.................... } 
....................  
.................... if(input(geri)){ 
0029:  BTFSS  05.1
002A:  GOTO   02D
....................  
.................... output_b(0x06); 
002B:  MOVLW  06
002C:  MOVWF  06
....................  
.................... } 
.................... if(input(dur)){ 
002D:  BTFSS  05.2
002E:  GOTO   031
....................  
.................... output_b(0x05); 
002F:  MOVLW  05
0030:  MOVWF  06
....................  
.................... } 
0031:  GOTO   025
....................  
.................... } 
....................  
.................... } 
....................  
0032:  SLEEP
....................  

Configuration Fuses:
   Word  1: 3F73   RC NOWDT PUT BROWNOUT NOLVP NOCPD NOWRT NODEBUG NOPROTECT
